; Function Attrs: mustprogress nounwind uwtable
define noundef zeroext i1 @_ZN7glslang11HlslGrammar16acceptIdentifierERNS_9HlslTokenE(ptr noundef nonnull align 8 dereferenceable(360) %0, ptr nocapture noundef nonnull writeonly align 8 dereferenceable(40) %1) local_unnamed_addr #0 align 2 {
  %3 = tail call noundef zeroext i1 @_ZNK7glslang15HlslTokenStream14peekTokenClassENS_15EHlslTokenClassE(ptr noundef nonnull align 8 dereferenceable(324) %0, i32 noundef 305) #16
  br i1 %3, label %4, label %6

4:                                                ; preds = %2
  %5 = getelementptr inbounds i8, ptr %0, i64 8
  tail call void @llvm.memcpy.p0.p0.i64(ptr noundef nonnull align 8 dereferenceable(40) %1, ptr noundef nonnull align 8 dereferenceable(40) %5, i64 40, i1 false)
  tail call void @_ZN7glslang15HlslTokenStream12advanceTokenEv(ptr noundef nonnull align 8 dereferenceable(324) %0) #16
  br label %27

6:                                                ; preds = %2
  %7 = tail call noundef zeroext i1 @_ZNK7glslang15HlslTokenStream14peekTokenClassENS_15EHlslTokenClassE(ptr noundef nonnull align 8 dereferenceable(324) %0, i32 noundef 311) #16
  br i1 %7, label %8, label %17

8:                                                ; preds = %6
  %9 = getelementptr inbounds i8, ptr %0, i64 8
  tail call void @llvm.memcpy.p0.p0.i64(ptr noundef nonnull align 8 dereferenceable(40) %1, ptr noundef nonnull align 8 dereferenceable(40) %9, i64 40, i1 false)
  tail call void @_ZN7glslang15HlslTokenStream12advanceTokenEv(ptr noundef nonnull align 8 dereferenceable(324) %0) #16
  %10 = getelementptr inbounds i8, ptr %1, i64 24
  store i32 305, ptr %10, align 8
  %11 = getelementptr inbounds i8, ptr %0, i64 336
  %12 = load ptr, ptr %11, align 8
  %13 = getelementptr inbounds i8, ptr %12, i64 752
  %14 = load ptr, ptr %13, align 8
  %15 = tail call noundef ptr @_ZN7glslang14NewPoolTStringB5cxx11EPKc(ptr noundef %14)
  %16 = getelementptr inbounds i8, ptr %1, i64 32
  store ptr %15, ptr %16, align 8
  br label %27

17:                                               ; preds = %6
  %18 = tail call noundef i32 @_ZNK7glslang15HlslTokenStream4peekEv(ptr noundef nonnull align 8 dereferenceable(324) %0) #16
  %19 = tail call noundef ptr @_ZNK7glslang11HlslGrammar13getTypeStringENS_15EHlslTokenClassE(ptr nonnull align 8 poison, i32 noundef %18)
  %20 = icmp eq ptr %19, null
  br i1 %20, label %27, label %21

21:                                               ; preds = %17
  %22 = tail call noundef ptr @_ZN7glslang14NewPoolTStringB5cxx11EPKc(ptr noundef nonnull %19)
  %23 = getelementptr inbounds i8, ptr %0, i64 8
  %24 = getelementptr inbounds i8, ptr %0, i64 40
  store ptr %22, ptr %24, align 8
  %25 = getelementptr inbounds i8, ptr %0, i64 32
  store i32 305, ptr %25, align 8
  tail call void @llvm.memcpy.p0.p0.i64(ptr noundef nonnull align 8 dereferenceable(40) %1, ptr noundef nonnull align 8 dereferenceable(40) %23, i64 40, i1 false)
  %26 = getelementptr inbounds i8, ptr %0, i64 344
  store i8 1, ptr %26, align 8
  tail call void @_ZN7glslang15HlslTokenStream12advanceTokenEv(ptr noundef nonnull align 8 dereferenceable(324) %0) #16
  br label %27

27:                                               ; preds = %17, %21, %8, %4
  %.0 = phi i1 [ true, %4 ], [ true, %8 ], [ true, %21 ], [ false, %17 ]
  ret i1 %.0
}